target datalayout = "e-m:e-p270:32:32-p271:32:32-p272:64:64-i64:64-i128:128-f80:128-n8:16:32:64-S128"
target triple = "x86_64-pc-linux-gnu"

@openwire_tcp_handle = internal global ptr null, align 8

; Function Attrs: nounwind uwtable
define internal i32 @dissect_openwire_heur(ptr noundef %0, ptr noundef %1, ptr noundef %2, ptr noundef %3) #0 {
  %5 = alloca i32, align 4
  %6 = alloca ptr, align 8
  %7 = alloca ptr, align 8
  %8 = alloca ptr, align 8
  %9 = alloca ptr, align 8
  %10 = alloca ptr, align 8
  %11 = alloca i32, align 4
  store ptr %0, ptr %6, align 8
  store ptr %1, ptr %7, align 8
  store ptr %2, ptr %8, align 8
  store ptr %3, ptr %9, align 8
  store i32 0, ptr %11, align 4
  %12 = load ptr, ptr %6, align 8
  %13 = call i32 @tvb_reported_length(ptr noundef %12)
  %14 = icmp eq i32 %13, 10
  br i1 %14, label %19, label %15

15:                                               ; preds = %4
  %16 = load ptr, ptr %6, align 8
  %17 = call i32 @tvb_reported_length(ptr noundef %16)
  %18 = icmp eq i32 %17, 11
  br i1 %18, label %19, label %33

19:                                               ; preds = %15, %4
  %20 = load ptr, ptr %6, align 8
  %21 = call zeroext i8 @tvb_get_guint8(ptr noundef %20, i32 noundef 4)
  %22 = zext i8 %21 to i32
  %23 = icmp eq i32 %22, 10
  br i1 %23, label %24, label %32

24:                                               ; preds = %19
  %25 = load ptr, ptr %6, align 8
  %26 = call i32 @tvb_get_ntohl(ptr noundef %25, i32 noundef 0)
  %27 = add i32 %26, 4
  %28 = load ptr, ptr %6, align 8
  %29 = call i32 @tvb_reported_length(ptr noundef %28)
  %30 = icmp eq i32 %27, %29
  br i1 %30, label %31, label %32

31:                                               ; preds = %24
  store i32 1, ptr %11, align 4
  br label %32

32:                                               ; preds = %31, %24, %19
  br label %80

33:                                               ; preds = %15
  %34 = load ptr, ptr %6, align 8
  %35 = call i32 @tvb_reported_length(ptr noundef %34)
  %36 = icmp eq i32 %35, 14
  br i1 %36, label %41, label %37

37:                                               ; preds = %33
  %38 = load ptr, ptr %6, align 8
  %39 = call i32 @tvb_reported_length(ptr noundef %38)
  %40 = icmp eq i32 %39, 15
  br i1 %40, label %41, label %55

41:                                               ; preds = %37, %33
  %42 = load ptr, ptr %6, align 8
  %43 = call zeroext i8 @tvb_get_guint8(ptr noundef %42, i32 noundef 4)
  %44 = zext i8 %43 to i32
  %45 = icmp eq i32 %44, 30
  br i1 %45, label %46, label %54

46:                                               ; preds = %41
  %47 = load ptr, ptr %6, align 8
  %48 = call i32 @tvb_get_ntohl(ptr noundef %47, i32 noundef 0)
  %49 = add i32 %48, 4
  %50 = load ptr, ptr %6, align 8
  %51 = call i32 @tvb_reported_length(ptr noundef %50)
  %52 = icmp eq i32 %49, %51
  br i1 %52, label %53, label %54

53:                                               ; preds = %46
  store i32 1, ptr %11, align 4
  br label %54

54:                                               ; preds = %53, %46, %41
  br label %79

55:                                               ; preds = %37
  %56 = load ptr, ptr %6, align 8
  %57 = call i32 @tvb_reported_length(ptr noundef %56)
  %58 = icmp uge i32 %57, 13
  br i1 %58, label %59, label %78

59:                                               ; preds = %55
  %60 = load ptr, ptr %6, align 8
  %61 = call i32 @tvb_captured_length(ptr noundef %60)
  %62 = icmp uge i32 %61, 10
  br i1 %62, label %63, label %77

63:                                               ; preds = %59
  %64 = load ptr, ptr %6, align 8
  %65 = call zeroext i8 @tvb_get_guint8(ptr noundef %64, i32 noundef 4)
  %66 = zext i8 %65 to i32
  %67 = icmp eq i32 %66, 1
  br i1 %67, label %68, label %77

68:                                               ; preds = %63
  %69 = load ptr, ptr %6, align 8
  %70 = call i32 @tvb_get_ntohl(ptr noundef %69, i32 noundef 5)
  %71 = icmp eq i32 %70, 1097036905
  br i1 %71, label %72, label %77

72:                                               ; preds = %68
  %73 = load ptr, ptr %6, align 8
  %74 = call i32 @tvb_get_ntohl(ptr noundef %73, i32 noundef 9)
  %75 = icmp eq i32 %74, 1986350417
  br i1 %75, label %76, label %77

76:                                               ; preds = %72
  store i32 1, ptr %11, align 4
  br label %77

77:                                               ; preds = %76, %72, %68, %63, %59
  br label %78

78:                                               ; preds = %77, %55
  br label %79

79:                                               ; preds = %78, %54
  br label %80

80:                                               ; preds = %79, %32
  %81 = load i32, ptr %11, align 4
  %82 = icmp ne i32 %81, 0
  br i1 %82, label %83, label %93

83:                                               ; preds = %80
  %84 = load ptr, ptr %7, align 8
  %85 = call nonnull ptr @find_or_create_conversation(ptr noundef %84)
  store ptr %85, ptr %10, align 8
  %86 = load ptr, ptr %10, align 8
  %87 = load ptr, ptr @openwire_tcp_handle, align 8
  call void @conversation_set_dissector(ptr noundef %86, ptr noundef %87)
  %88 = load ptr, ptr %6, align 8
  %89 = load ptr, ptr %7, align 8
  %90 = load ptr, ptr %8, align 8
  %91 = load ptr, ptr %9, align 8
  %92 = call i32 @dissect_openwire(ptr noundef %88, ptr noundef %89, ptr noundef %90, ptr noundef %91)
  store i32 1, ptr %5, align 4
  br label %94

93:                                               ; preds = %80
  store i32 0, ptr %5, align 4
  br label %94

94:                                               ; preds = %93, %83
  %95 = load i32, ptr %5, align 4
  ret i32 %95
}