; Function Attrs: nounwind uwtable
define internal range(i32 0, 2) i32 @dissect_openwire_heur(ptr noundef %0, ptr noundef %1, ptr noundef %2, ptr noundef readnone captures(none) %3) #0 {
  %5 = tail call i32 @tvb_reported_length(ptr noundef %0) #2
  %6 = icmp eq i32 %5, 10
  br i1 %6, label %10, label %7

7:                                                ; preds = %4
  %8 = tail call i32 @tvb_reported_length(ptr noundef %0) #2
  %9 = icmp eq i32 %8, 11
  br i1 %9, label %10, label %17

10:                                               ; preds = %7, %4
  %11 = tail call zeroext i8 @tvb_get_guint8(ptr noundef %0, i32 noundef 4) #2
  %12 = icmp eq i8 %11, 10
  br i1 %12, label %13, label %.critedge

13:                                               ; preds = %10
  %14 = tail call i32 @tvb_get_ntohl(ptr noundef %0, i32 noundef 0) #2
  %15 = add i32 %14, 4
  %16 = tail call i32 @tvb_reported_length(ptr noundef %0) #2
  %.not26 = icmp eq i32 %15, %16
  br i1 %.not26, label %44, label %.critedge

17:                                               ; preds = %7
  %18 = tail call i32 @tvb_reported_length(ptr noundef %0) #2
  %19 = icmp eq i32 %18, 14
  br i1 %19, label %23, label %20

20:                                               ; preds = %17
  %21 = tail call i32 @tvb_reported_length(ptr noundef %0) #2
  %22 = icmp eq i32 %21, 15
  br i1 %22, label %23, label %30

23:                                               ; preds = %20, %17
  %24 = tail call zeroext i8 @tvb_get_guint8(ptr noundef %0, i32 noundef 4) #2
  %25 = icmp eq i8 %24, 30
  br i1 %25, label %26, label %.critedge

26:                                               ; preds = %23
  %27 = tail call i32 @tvb_get_ntohl(ptr noundef %0, i32 noundef 0) #2
  %28 = add i32 %27, 4
  %29 = tail call i32 @tvb_reported_length(ptr noundef %0) #2
  %.not25 = icmp eq i32 %28, %29
  br i1 %.not25, label %44, label %.critedge

30:                                               ; preds = %20
  %31 = tail call i32 @tvb_reported_length(ptr noundef %0) #2
  %32 = icmp ugt i32 %31, 12
  br i1 %32, label %33, label %.critedge

33:                                               ; preds = %30
  %34 = tail call i32 @tvb_captured_length(ptr noundef %0) #2
  %35 = icmp ugt i32 %34, 9
  br i1 %35, label %36, label %.critedge

36:                                               ; preds = %33
  %37 = tail call zeroext i8 @tvb_get_guint8(ptr noundef %0, i32 noundef 4) #2
  %38 = icmp eq i8 %37, 1
  br i1 %38, label %39, label %.critedge

39:                                               ; preds = %36
  %40 = tail call i32 @tvb_get_ntohl(ptr noundef %0, i32 noundef 5) #2
  %41 = icmp eq i32 %40, 1097036905
  br i1 %41, label %42, label %.critedge

42:                                               ; preds = %39
  %43 = tail call i32 @tvb_get_ntohl(ptr noundef %0, i32 noundef 9) #2
  %.not = icmp eq i32 %43, 1986350417
  br i1 %.not, label %44, label %.critedge

44:                                               ; preds = %26, %13, %42
  %45 = tail call nonnull ptr @find_or_create_conversation(ptr noundef %1) #2
  %46 = load ptr, ptr @openwire_tcp_handle, align 8
  tail call void @conversation_set_dissector(ptr noundef nonnull %45, ptr noundef %46) #2
  %47 = tail call i32 @dissect_openwire(ptr noundef %0, ptr noundef %1, ptr noundef %2, ptr poison)
  br label %.critedge

.critedge:                                        ; preds = %26, %13, %42, %30, %33, %36, %39, %23, %10, %44
  %.022 = phi i32 [ 1, %44 ], [ 0, %10 ], [ 0, %23 ], [ 0, %39 ], [ 0, %36 ], [ 0, %33 ], [ 0, %30 ], [ 0, %42 ], [ 0, %13 ], [ 0, %26 ]
  ret i32 %.022
}